target datalayout = "e-m:e-p270:32:32-p271:32:32-p272:64:64-i64:64-i128:128-f80:128-n8:16:32:64-S128"
target triple = "x86_64-pc-linux-gnu"

%struct.H5C_cache_image_ctl_t = type { i32, i8, i8, i32, i32 }

@H5C_init_g = external global i8, align 1
@H5_libterm_g = external global i8, align 1
@.str.1 = private unnamed_addr constant [102 x i8] c"generated/home/dtcxzyw/WorkSpace/Projects/compilers/llvm-opt-benchmark/bench/hdf5/hdf5/src/H5Cimage.c\00", align 1
@H5E_CACHE_g = external global i64, align 8
@H5E_BADVALUE_g = external global i64, align 8
@H5E_SYSTEM_g = external global i64, align 8
@__func__.H5C_validate_cache_image_config = private unnamed_addr constant [32 x i8] c"H5C_validate_cache_image_config\00", align 1
@.str.21 = private unnamed_addr constant [22 x i8] c"NULL ctl_ptr on entry\00", align 1
@.str.22 = private unnamed_addr constant [36 x i8] c"Unknown cache image control version\00", align 1
@.str.23 = private unnamed_addr constant [45 x i8] c"unexpected value in save_resize_status field\00", align 1
@.str.24 = private unnamed_addr constant [39 x i8] c"unexpected value in entry_ageout field\00", align 1
@.str.25 = private unnamed_addr constant [17 x i8] c"unknown flag set\00", align 1

; Function Attrs: nounwind uwtable
define i32 @H5C_validate_cache_image_config(ptr noundef %0) #0 {
  %2 = alloca ptr, align 8
  %3 = alloca i32, align 4
  %4 = alloca i8, align 1
  store ptr %0, ptr %2, align 8, !tbaa !73
  call void @llvm.lifetime.start.p0(i64 4, ptr %3) #8
  store i32 0, ptr %3, align 4, !tbaa !54
  call void @llvm.lifetime.start.p0(i64 1, ptr %4) #8
  store i8 0, ptr %4, align 1, !tbaa !8
  %5 = load i8, ptr @H5C_init_g, align 1, !tbaa !8, !range !10, !noundef !11
  %6 = trunc i8 %5 to i1
  br i1 %6, label %11, label %7

7:                                                ; preds = %1
  %8 = load i8, ptr @H5_libterm_g, align 1, !tbaa !8, !range !10, !noundef !11
  %9 = trunc i8 %8 to i1
  %10 = xor i1 %9, true
  br label %11

11:                                               ; preds = %7, %1
  %12 = phi i1 [ false, %1 ], [ %10, %7 ]
  %13 = xor i1 %12, true
  %14 = xor i1 %13, true
  %15 = zext i1 %14 to i32
  %16 = sext i32 %15 to i64
  %17 = call i64 @llvm.expect.i64(i64 %16, i64 0)
  %18 = icmp ne i64 %17, 0
  br i1 %18, label %19, label %20

19:                                               ; preds = %11
  store i8 1, ptr @H5C_init_g, align 1, !tbaa !8
  br label %20

20:                                               ; preds = %19, %11
  %21 = load i8, ptr @H5C_init_g, align 1, !tbaa !8, !range !10, !noundef !11
  %22 = trunc i8 %21 to i1
  br i1 %22, label %27, label %23

23:                                               ; preds = %20
  %24 = load i8, ptr @H5_libterm_g, align 1, !tbaa !8, !range !10, !noundef !11
  %25 = trunc i8 %24 to i1
  %26 = xor i1 %25, true
  br label %27

27:                                               ; preds = %23, %20
  %28 = phi i1 [ true, %20 ], [ %26, %23 ]
  %29 = xor i1 %28, true
  %30 = xor i1 %29, true
  %31 = zext i1 %30 to i32
  %32 = sext i32 %31 to i64
  %33 = call i64 @llvm.expect.i64(i64 %32, i64 1)
  %34 = icmp ne i64 %33, 0
  br i1 %34, label %35, label %158

35:                                               ; preds = %27
  %36 = load ptr, ptr %2, align 8, !tbaa !73
  %37 = icmp eq ptr %36, null
  br i1 %37, label %38, label %57

38:                                               ; preds = %35
  br label %39

39:                                               ; preds = %38
  br label %40

40:                                               ; preds = %39
  br label %41

41:                                               ; preds = %40
  %42 = load i64, ptr @H5E_CACHE_g, align 8, !tbaa !55
  %43 = load i64, ptr @H5E_SYSTEM_g, align 8, !tbaa !55
  %44 = call i32 (ptr, ptr, i32, i64, i64, ptr, ...) @H5E_printf_stack(ptr noundef @.str.1, ptr noundef @__func__.H5C_validate_cache_image_config, i32 noundef 1168, i64 noundef %42, i64 noundef %43, ptr noundef @.str.21)
  br label %45

45:                                               ; preds = %41
  br label %46

46:                                               ; preds = %45
  store i8 1, ptr %4, align 1, !tbaa !8
  %47 = load i8, ptr %4, align 1, !tbaa !8, !range !10, !noundef !11
  %48 = trunc i8 %47 to i1
  %49 = zext i1 %48 to i8
  store i8 %49, ptr %4, align 1, !tbaa !8
  br label %50

50:                                               ; preds = %46
  br label %51

51:                                               ; preds = %50
  br label %52

52:                                               ; preds = %51
  store i32 -1, ptr %3, align 4, !tbaa !54
  br label %157

53:                                               ; No predecessors!
  br label %54

54:                                               ; preds = %53
  br label %55

55:                                               ; preds = %54
  br label %56

56:                                               ; preds = %55
  br label %57

57:                                               ; preds = %56, %35
  %58 = load ptr, ptr %2, align 8, !tbaa !73
  %59 = getelementptr inbounds nuw %struct.H5C_cache_image_ctl_t, ptr %58, i32 0, i32 0
  %60 = load i32, ptr %59, align 4, !tbaa !173
  %61 = icmp ne i32 %60, 1
  br i1 %61, label %62, label %81

62:                                               ; preds = %57
  br label %63

63:                                               ; preds = %62
  br label %64

64:                                               ; preds = %63
  br label %65

65:                                               ; preds = %64
  %66 = load i64, ptr @H5E_CACHE_g, align 8, !tbaa !55
  %67 = load i64, ptr @H5E_SYSTEM_g, align 8, !tbaa !55
  %68 = call i32 (ptr, ptr, i32, i64, i64, ptr, ...) @H5E_printf_stack(ptr noundef @.str.1, ptr noundef @__func__.H5C_validate_cache_image_config, i32 noundef 1170, i64 noundef %66, i64 noundef %67, ptr noundef @.str.22)
  br label %69

69:                                               ; preds = %65
  br label %70

70:                                               ; preds = %69
  store i8 1, ptr %4, align 1, !tbaa !8
  %71 = load i8, ptr %4, align 1, !tbaa !8, !range !10, !noundef !11
  %72 = trunc i8 %71 to i1
  %73 = zext i1 %72 to i8
  store i8 %73, ptr %4, align 1, !tbaa !8
  br label %74

74:                                               ; preds = %70
  br label %75

75:                                               ; preds = %74
  br label %76

76:                                               ; preds = %75
  store i32 -1, ptr %3, align 4, !tbaa !54
  br label %157

77:                                               ; No predecessors!
  br label %78

78:                                               ; preds = %77
  br label %79

79:                                               ; preds = %78
  br label %80

80:                                               ; preds = %79
  br label %81

81:                                               ; preds = %80, %57
  %82 = load ptr, ptr %2, align 8, !tbaa !73
  %83 = getelementptr inbounds nuw %struct.H5C_cache_image_ctl_t, ptr %82, i32 0, i32 2
  %84 = load i8, ptr %83, align 1, !tbaa !174, !range !10, !noundef !11
  %85 = trunc i8 %84 to i1
  %86 = zext i1 %85 to i32
  %87 = icmp ne i32 %86, 0
  br i1 %87, label %88, label %107

88:                                               ; preds = %81
  br label %89

89:                                               ; preds = %88
  br label %90

90:                                               ; preds = %89
  br label %91

91:                                               ; preds = %90
  %92 = load i64, ptr @H5E_CACHE_g, align 8, !tbaa !55
  %93 = load i64, ptr @H5E_BADVALUE_g, align 8, !tbaa !55
  %94 = call i32 (ptr, ptr, i32, i64, i64, ptr, ...) @H5E_printf_stack(ptr noundef @.str.1, ptr noundef @__func__.H5C_validate_cache_image_config, i32 noundef 1177, i64 noundef %92, i64 noundef %93, ptr noundef @.str.23)
  br label %95

95:                                               ; preds = %91
  br label %96

96:                                               ; preds = %95
  store i8 1, ptr %4, align 1, !tbaa !8
  %97 = load i8, ptr %4, align 1, !tbaa !8, !range !10, !noundef !11
  %98 = trunc i8 %97 to i1
  %99 = zext i1 %98 to i8
  store i8 %99, ptr %4, align 1, !tbaa !8
  br label %100

100:                                              ; preds = %96
  br label %101

101:                                              ; preds = %100
  br label %102

102:                                              ; preds = %101
  store i32 -1, ptr %3, align 4, !tbaa !54
  br label %157

103:                                              ; No predecessors!
  br label %104

104:                                              ; preds = %103
  br label %105

105:                                              ; preds = %104
  br label %106

106:                                              ; preds = %105
  br label %107

107:                                              ; preds = %106, %81
  %108 = load ptr, ptr %2, align 8, !tbaa !73
  %109 = getelementptr inbounds nuw %struct.H5C_cache_image_ctl_t, ptr %108, i32 0, i32 3
  %110 = load i32, ptr %109, align 4, !tbaa !175
  %111 = icmp ne i32 %110, -1
  br i1 %111, label %112, label %131

112:                                              ; preds = %107
  br label %113

113:                                              ; preds = %112
  br label %114

114:                                              ; preds = %113
  br label %115

115:                                              ; preds = %114
  %116 = load i64, ptr @H5E_CACHE_g, align 8, !tbaa !55
  %117 = load i64, ptr @H5E_BADVALUE_g, align 8, !tbaa !55
  %118 = call i32 (ptr, ptr, i32, i64, i64, ptr, ...) @H5E_printf_stack(ptr noundef @.str.1, ptr noundef @__func__.H5C_validate_cache_image_config, i32 noundef 1184, i64 noundef %116, i64 noundef %117, ptr noundef @.str.24)
  br label %119

119:                                              ; preds = %115
  br label %120

120:                                              ; preds = %119
  store i8 1, ptr %4, align 1, !tbaa !8
  %121 = load i8, ptr %4, align 1, !tbaa !8, !range !10, !noundef !11
  %122 = trunc i8 %121 to i1
  %123 = zext i1 %122 to i8
  store i8 %123, ptr %4, align 1, !tbaa !8
  br label %124

124:                                              ; preds = %120
  br label %125

125:                                              ; preds = %124
  br label %126

126:                                              ; preds = %125
  store i32 -1, ptr %3, align 4, !tbaa !54
  br label %157

127:                                              ; No predecessors!
  br label %128

128:                                              ; preds = %127
  br label %129

129:                                              ; preds = %128
  br label %130

130:                                              ; preds = %129
  br label %131

131:                                              ; preds = %130, %107
  %132 = load ptr, ptr %2, align 8, !tbaa !73
  %133 = getelementptr inbounds nuw %struct.H5C_cache_image_ctl_t, ptr %132, i32 0, i32 4
  %134 = load i32, ptr %133, align 4, !tbaa !176
  %135 = and i32 %134, -16
  %136 = icmp ne i32 %135, 0
  br i1 %136, label %137, label %156

137:                                              ; preds = %131
  br label %138

138:                                              ; preds = %137
  br label %139

139:                                              ; preds = %138
  br label %140

140:                                              ; preds = %139
  %141 = load i64, ptr @H5E_CACHE_g, align 8, !tbaa !55
  %142 = load i64, ptr @H5E_BADVALUE_g, align 8, !tbaa !55
  %143 = call i32 (ptr, ptr, i32, i64, i64, ptr, ...) @H5E_printf_stack(ptr noundef @.str.1, ptr noundef @__func__.H5C_validate_cache_image_config, i32 noundef 1187, i64 noundef %141, i64 noundef %142, ptr noundef @.str.25)
  br label %144

144:                                              ; preds = %140
  br label %145

145:                                              ; preds = %144
  store i8 1, ptr %4, align 1, !tbaa !8
  %146 = load i8, ptr %4, align 1, !tbaa !8, !range !10, !noundef !11
  %147 = trunc i8 %146 to i1
  %148 = zext i1 %147 to i8
  store i8 %148, ptr %4, align 1, !tbaa !8
  br label %149

149:                                              ; preds = %145
  br label %150

150:                                              ; preds = %149
  br label %151

151:                                              ; preds = %150
  store i32 -1, ptr %3, align 4, !tbaa !54
  br label %157

152:                                              ; No predecessors!
  br label %153

153:                                              ; preds = %152
  br label %154

154:                                              ; preds = %153
  br label %155

155:                                              ; preds = %154
  br label %156

156:                                              ; preds = %155, %131
  br label %157

157:                                              ; preds = %156, %151, %126, %102, %76, %52
  br label %158

158:                                              ; preds = %157, %27
  %159 = load i32, ptr %3, align 4, !tbaa !54
  call void @llvm.lifetime.end.p0(i64 1, ptr %4) #8
  call void @llvm.lifetime.end.p0(i64 4, ptr %3) #8
  ret i32 %159
}