; Function Attrs: nounwind uwtable
define range(i32 -1, 1) i32 @H5C_validate_cache_image_config(ptr noundef readonly captures(address_is_null) %0) local_unnamed_addr #3 {
  %2 = load i8, ptr @H5C_init_g, align 1, !tbaa !3, !range !7, !noundef !8
  %3 = trunc nuw i8 %2 to i1
  %4 = load i8, ptr @H5_libterm_g, align 1, !range !7
  %5 = trunc nuw i8 %4 to i1
  %6 = select i1 %3, i1 true, i1 %5
  br i1 %6, label %7, label %.thread, !prof !9

.thread:                                          ; preds = %1
  store i8 1, ptr @H5C_init_g, align 1, !tbaa !3
  br label %10

7:                                                ; preds = %1
  %8 = xor i1 %5, true
  %9 = select i1 %3, i1 true, i1 %8
  br i1 %9, label %10, label %44, !prof !186

10:                                               ; preds = %.thread, %7
  %11 = icmp eq ptr %0, null
  br i1 %11, label %12, label %16

12:                                               ; preds = %10
  %13 = load i64, ptr @H5E_CACHE_g, align 8, !tbaa !53
  %14 = load i64, ptr @H5E_SYSTEM_g, align 8, !tbaa !53
  %15 = tail call i32 (ptr, ptr, i32, i64, i64, ptr, ...) @H5E_printf_stack(ptr noundef nonnull @.str.1, ptr noundef nonnull @__func__.H5C_validate_cache_image_config, i32 noundef 1168, i64 noundef %13, i64 noundef %14, ptr noundef nonnull @.str.21) #15
  br label %44

16:                                               ; preds = %10
  %17 = load i32, ptr %0, align 4, !tbaa !187
  %.not = icmp eq i32 %17, 1
  br i1 %.not, label %22, label %18

18:                                               ; preds = %16
  %19 = load i64, ptr @H5E_CACHE_g, align 8, !tbaa !53
  %20 = load i64, ptr @H5E_SYSTEM_g, align 8, !tbaa !53
  %21 = tail call i32 (ptr, ptr, i32, i64, i64, ptr, ...) @H5E_printf_stack(ptr noundef nonnull @.str.1, ptr noundef nonnull @__func__.H5C_validate_cache_image_config, i32 noundef 1170, i64 noundef %19, i64 noundef %20, ptr noundef nonnull @.str.22) #15
  br label %44

22:                                               ; preds = %16
  %23 = getelementptr inbounds nuw i8, ptr %0, i64 5
  %24 = load i8, ptr %23, align 1, !tbaa !188, !range !7, !noundef !8
  %25 = trunc nuw i8 %24 to i1
  br i1 %25, label %26, label %30

26:                                               ; preds = %22
  %27 = load i64, ptr @H5E_CACHE_g, align 8, !tbaa !53
  %28 = load i64, ptr @H5E_BADVALUE_g, align 8, !tbaa !53
  %29 = tail call i32 (ptr, ptr, i32, i64, i64, ptr, ...) @H5E_printf_stack(ptr noundef nonnull @.str.1, ptr noundef nonnull @__func__.H5C_validate_cache_image_config, i32 noundef 1177, i64 noundef %27, i64 noundef %28, ptr noundef nonnull @.str.23) #15
  br label %44

30:                                               ; preds = %22
  %31 = getelementptr inbounds nuw i8, ptr %0, i64 8
  %32 = load i32, ptr %31, align 4, !tbaa !189
  %.not11 = icmp eq i32 %32, -1
  br i1 %.not11, label %37, label %33

33:                                               ; preds = %30
  %34 = load i64, ptr @H5E_CACHE_g, align 8, !tbaa !53
  %35 = load i64, ptr @H5E_BADVALUE_g, align 8, !tbaa !53
  %36 = tail call i32 (ptr, ptr, i32, i64, i64, ptr, ...) @H5E_printf_stack(ptr noundef nonnull @.str.1, ptr noundef nonnull @__func__.H5C_validate_cache_image_config, i32 noundef 1184, i64 noundef %34, i64 noundef %35, ptr noundef nonnull @.str.24) #15
  br label %44

37:                                               ; preds = %30
  %38 = getelementptr inbounds nuw i8, ptr %0, i64 12
  %39 = load i32, ptr %38, align 4, !tbaa !190
  %.not12 = icmp ult i32 %39, 16
  br i1 %.not12, label %44, label %40

40:                                               ; preds = %37
  %41 = load i64, ptr @H5E_CACHE_g, align 8, !tbaa !53
  %42 = load i64, ptr @H5E_BADVALUE_g, align 8, !tbaa !53
  %43 = tail call i32 (ptr, ptr, i32, i64, i64, ptr, ...) @H5E_printf_stack(ptr noundef nonnull @.str.1, ptr noundef nonnull @__func__.H5C_validate_cache_image_config, i32 noundef 1187, i64 noundef %41, i64 noundef %42, ptr noundef nonnull @.str.25) #15
  br label %44

44:                                               ; preds = %12, %18, %26, %33, %40, %37, %7
  %.0 = phi i32 [ -1, %12 ], [ -1, %18 ], [ -1, %26 ], [ -1, %33 ], [ -1, %40 ], [ 0, %37 ], [ 0, %7 ]
  ret i32 %.0
}